target datalayout = "e-m:e-p270:32:32-p271:32:32-p272:64:64-i64:64-i128:128-f80:128-n8:16:32:64-S128"
target triple = "x86_64-pc-linux-gnu"

%struct.Timestamp = type { i64, %struct.AVRational }
%struct.AVRational = type { i32, i32 }
%struct.SchTask = type { ptr, %struct.SchedulerNode, ptr, ptr, i64, i32 }
%struct.SchedulerNode = type { i32, i32, i32 }
%struct.SchMux = type { ptr, ptr, i32, i32, ptr, %struct.SchTask, i32, ptr, i32, ptr }
%struct.SchMuxStream = type { %struct.SchedulerNode, %struct.SchedulerNode, ptr, i32, %struct.PreMuxQueue, i32, i64, i32 }
%struct.PreMuxQueue = type { ptr, i32, i64, i64 }
%struct.AVPacket = type { ptr, i64, i64, ptr, i32, i32, i32, ptr, i32, i64, i64, ptr, ptr, %struct.AVRational }

@.str = private unnamed_addr constant [30 x i8] c"Assertion %s failed at %s:%d\0A\00", align 1
@.str.2 = private unnamed_addr constant [23 x i8] c"fftools/ffmpeg_sched.c\00", align 1
@__const.mux_task_start.min_ts = private unnamed_addr constant %struct.Timestamp { i64 -9223372036854775808, %struct.AVRational zeroinitializer }, align 8
@.str.46 = private unnamed_addr constant [9 x i8] c"ret >= 0\00", align 1

; Function Attrs: nounwind uwtable
define internal i32 @mux_task_start(ptr noundef %0) #0 {
  %2 = alloca i32, align 4
  %3 = alloca ptr, align 8
  %4 = alloca i32, align 4
  %5 = alloca i32, align 4
  %6 = alloca i32, align 4
  %7 = alloca %struct.Timestamp, align 8
  %8 = alloca ptr, align 8
  %9 = alloca i32, align 4
  %10 = alloca ptr, align 8
  %11 = alloca %struct.Timestamp, align 8
  %12 = alloca ptr, align 8
  %13 = alloca i32, align 4
  store ptr %0, ptr %3, align 8, !tbaa !41
  call void @llvm.lifetime.start.p0(i64 4, ptr %4) #9
  store i32 0, ptr %4, align 4, !tbaa !12
  %14 = load ptr, ptr %3, align 8, !tbaa !41
  %15 = getelementptr inbounds nuw %struct.SchMux, ptr %14, i32 0, i32 5
  %16 = call i32 @task_start(ptr noundef %15)
  store i32 %16, ptr %4, align 4, !tbaa !12
  %17 = load i32, ptr %4, align 4, !tbaa !12
  %18 = icmp slt i32 %17, 0
  br i1 %18, label %19, label %21

19:                                               ; preds = %1
  %20 = load i32, ptr %4, align 4, !tbaa !12
  store i32 %20, ptr %2, align 4
  store i32 1, ptr %5, align 4
  br label %152

21:                                               ; preds = %1
  br label %22

22:                                               ; preds = %146, %21
  br label %23

23:                                               ; preds = %22
  call void @llvm.lifetime.start.p0(i64 4, ptr %6) #9
  store i32 -1, ptr %6, align 4, !tbaa !12
  call void @llvm.lifetime.start.p0(i64 16, ptr %7) #9
  call void @llvm.memcpy.p0.p0.i64(ptr align 8 %7, ptr align 8 @__const.mux_task_start.min_ts, i64 16, i1 false)
  call void @llvm.lifetime.start.p0(i64 8, ptr %8) #9
  call void @llvm.lifetime.start.p0(i64 4, ptr %9) #9
  store i32 0, ptr %9, align 4, !tbaa !12
  br label %24

24:                                               ; preds = %85, %23
  %25 = load i32, ptr %9, align 4, !tbaa !12
  %26 = load ptr, ptr %3, align 8, !tbaa !41
  %27 = getelementptr inbounds nuw %struct.SchMux, ptr %26, i32 0, i32 2
  %28 = load i32, ptr %27, align 8, !tbaa !42
  %29 = icmp ult i32 %25, %28
  br i1 %29, label %31, label %30

30:                                               ; preds = %24
  store i32 4, ptr %5, align 4
  br label %88

31:                                               ; preds = %24
  call void @llvm.lifetime.start.p0(i64 8, ptr %10) #9
  %32 = load ptr, ptr %3, align 8, !tbaa !41
  %33 = getelementptr inbounds nuw %struct.SchMux, ptr %32, i32 0, i32 1
  %34 = load ptr, ptr %33, align 8, !tbaa !46
  %35 = load i32, ptr %9, align 4, !tbaa !12
  %36 = zext i32 %35 to i64
  %37 = getelementptr inbounds nuw %struct.SchMuxStream, ptr %34, i64 %36
  store ptr %37, ptr %10, align 8, !tbaa !47
  %38 = load ptr, ptr %10, align 8, !tbaa !47
  %39 = getelementptr inbounds nuw %struct.SchMuxStream, ptr %38, i32 0, i32 4
  %40 = getelementptr inbounds nuw %struct.PreMuxQueue, ptr %39, i32 0, i32 0
  %41 = load ptr, ptr %40, align 8, !tbaa !48
  %42 = call i32 @av_fifo_peek(ptr noundef %41, ptr noundef %8, i64 noundef 1, i64 noundef 0)
  %43 = icmp slt i32 %42, 0
  br i1 %43, label %44, label %45

44:                                               ; preds = %31
  store i32 6, ptr %5, align 4
  br label %82

45:                                               ; preds = %31
  %46 = load ptr, ptr %8, align 8, !tbaa !208
  %47 = icmp ne ptr %46, null
  br i1 %47, label %48, label %53

48:                                               ; preds = %45
  %49 = load ptr, ptr %8, align 8, !tbaa !208
  %50 = getelementptr inbounds nuw %struct.AVPacket, ptr %49, i32 0, i32 2
  %51 = load i64, ptr %50, align 8, !tbaa !247
  %52 = icmp eq i64 %51, -9223372036854775808
  br i1 %52, label %53, label %55

53:                                               ; preds = %48, %45
  %54 = load i32, ptr %9, align 4, !tbaa !12
  store i32 %54, ptr %6, align 4, !tbaa !12
  store i32 4, ptr %5, align 4
  br label %82

55:                                               ; preds = %48
  %56 = getelementptr inbounds nuw %struct.Timestamp, ptr %7, i32 0, i32 0
  %57 = load i64, ptr %56, align 8, !tbaa !221
  %58 = icmp eq i64 %57, -9223372036854775808
  br i1 %58, label %72, label %59

59:                                               ; preds = %55
  %60 = getelementptr inbounds nuw %struct.Timestamp, ptr %7, i32 0, i32 0
  %61 = load i64, ptr %60, align 8, !tbaa !221
  %62 = getelementptr inbounds nuw %struct.Timestamp, ptr %7, i32 0, i32 1
  %63 = load ptr, ptr %8, align 8, !tbaa !208
  %64 = getelementptr inbounds nuw %struct.AVPacket, ptr %63, i32 0, i32 2
  %65 = load i64, ptr %64, align 8, !tbaa !247
  %66 = load ptr, ptr %8, align 8, !tbaa !208
  %67 = getelementptr inbounds nuw %struct.AVPacket, ptr %66, i32 0, i32 13
  %68 = load i64, ptr %62, align 8
  %69 = load i64, ptr %67, align 8
  %70 = call i32 @av_compare_ts(i64 noundef %61, i64 %68, i64 noundef %65, i64 %69)
  %71 = icmp sgt i32 %70, 0
  br i1 %71, label %72, label %81

72:                                               ; preds = %59, %55
  %73 = load i32, ptr %9, align 4, !tbaa !12
  store i32 %73, ptr %6, align 4, !tbaa !12
  %74 = getelementptr inbounds nuw %struct.Timestamp, ptr %11, i32 0, i32 0
  %75 = load ptr, ptr %8, align 8, !tbaa !208
  %76 = getelementptr inbounds nuw %struct.AVPacket, ptr %75, i32 0, i32 2
  %77 = load i64, ptr %76, align 8, !tbaa !247
  store i64 %77, ptr %74, align 8, !tbaa !221
  %78 = getelementptr inbounds nuw %struct.Timestamp, ptr %11, i32 0, i32 1
  %79 = load ptr, ptr %8, align 8, !tbaa !208
  %80 = getelementptr inbounds nuw %struct.AVPacket, ptr %79, i32 0, i32 13
  call void @llvm.memcpy.p0.p0.i64(ptr align 8 %78, ptr align 8 %80, i64 8, i1 false), !tbaa.struct !227
  call void @llvm.memcpy.p0.p0.i64(ptr align 8 %7, ptr align 8 %11, i64 16, i1 false), !tbaa.struct !223
  br label %81

81:                                               ; preds = %72, %59
  store i32 0, ptr %5, align 4
  br label %82

82:                                               ; preds = %81, %53, %44
  call void @llvm.lifetime.end.p0(i64 8, ptr %10) #9
  %83 = load i32, ptr %5, align 4
  switch i32 %83, label %88 [
    i32 0, label %84
    i32 6, label %85
  ]

84:                                               ; preds = %82
  br label %85

85:                                               ; preds = %84, %82
  %86 = load i32, ptr %9, align 4, !tbaa !12
  %87 = add i32 %86, 1
  store i32 %87, ptr %9, align 4, !tbaa !12
  br label %24, !llvm.loop !248

88:                                               ; preds = %82, %30
  call void @llvm.lifetime.end.p0(i64 4, ptr %9) #9
  br label %89

89:                                               ; preds = %88
  %90 = load i32, ptr %6, align 4, !tbaa !12
  %91 = icmp sge i32 %90, 0
  br i1 %91, label %92, label %145

92:                                               ; preds = %89
  call void @llvm.lifetime.start.p0(i64 8, ptr %12) #9
  %93 = load ptr, ptr %3, align 8, !tbaa !41
  %94 = getelementptr inbounds nuw %struct.SchMux, ptr %93, i32 0, i32 1
  %95 = load ptr, ptr %94, align 8, !tbaa !46
  %96 = load i32, ptr %6, align 4, !tbaa !12
  %97 = sext i32 %96 to i64
  %98 = getelementptr inbounds %struct.SchMuxStream, ptr %95, i64 %97
  store ptr %98, ptr %12, align 8, !tbaa !47
  %99 = load ptr, ptr %12, align 8, !tbaa !47
  %100 = getelementptr inbounds nuw %struct.SchMuxStream, ptr %99, i32 0, i32 4
  %101 = getelementptr inbounds nuw %struct.PreMuxQueue, ptr %100, i32 0, i32 0
  %102 = load ptr, ptr %101, align 8, !tbaa !48
  %103 = call i32 @av_fifo_read(ptr noundef %102, ptr noundef %8, i64 noundef 1)
  store i32 %103, ptr %4, align 4, !tbaa !12
  br label %104

104:                                              ; preds = %92
  %105 = load i32, ptr %4, align 4, !tbaa !12
  %106 = icmp sge i32 %105, 0
  br i1 %106, label %108, label %107

107:                                              ; preds = %104
  call void (ptr, i32, ptr, ...) @av_log(ptr noundef null, i32 noundef 0, ptr noundef @.str, ptr noundef @.str.46, ptr noundef @.str.2, i32 noundef 1135)
  call void @abort() #10
  unreachable

108:                                              ; preds = %104
  br label %109

109:                                              ; preds = %108
  br label %110

110:                                              ; preds = %109
  %111 = load ptr, ptr %8, align 8, !tbaa !208
  %112 = icmp ne ptr %111, null
  br i1 %112, label %113, label %138

113:                                              ; preds = %110
  %114 = load ptr, ptr %12, align 8, !tbaa !47
  %115 = getelementptr inbounds nuw %struct.SchMuxStream, ptr %114, i32 0, i32 5
  %116 = load i32, ptr %115, align 8, !tbaa !249
  %117 = icmp ne i32 %116, 0
  br i1 %117, label %125, label %118

118:                                              ; preds = %113
  %119 = load ptr, ptr %3, align 8, !tbaa !41
  %120 = getelementptr inbounds nuw %struct.SchMux, ptr %119, i32 0, i32 7
  %121 = load ptr, ptr %120, align 8, !tbaa !229
  %122 = load i32, ptr %6, align 4, !tbaa !12
  %123 = load ptr, ptr %8, align 8, !tbaa !208
  %124 = call i32 @tq_send(ptr noundef %121, i32 noundef %122, ptr noundef %123)
  store i32 %124, ptr %4, align 4, !tbaa !12
  br label %125

125:                                              ; preds = %118, %113
  call void @av_packet_free(ptr noundef %8)
  %126 = load i32, ptr %4, align 4, !tbaa !12
  %127 = icmp eq i32 %126, -541478725
  br i1 %127, label %128, label %131

128:                                              ; preds = %125
  %129 = load ptr, ptr %12, align 8, !tbaa !47
  %130 = getelementptr inbounds nuw %struct.SchMuxStream, ptr %129, i32 0, i32 5
  store i32 1, ptr %130, align 8, !tbaa !249
  br label %137

131:                                              ; preds = %125
  %132 = load i32, ptr %4, align 4, !tbaa !12
  %133 = icmp slt i32 %132, 0
  br i1 %133, label %134, label %136

134:                                              ; preds = %131
  %135 = load i32, ptr %4, align 4, !tbaa !12
  store i32 %135, ptr %2, align 4
  store i32 1, ptr %5, align 4
  br label %144

136:                                              ; preds = %131
  br label %137

137:                                              ; preds = %136, %128
  br label %143

138:                                              ; preds = %110
  %139 = load ptr, ptr %3, align 8, !tbaa !41
  %140 = getelementptr inbounds nuw %struct.SchMux, ptr %139, i32 0, i32 7
  %141 = load ptr, ptr %140, align 8, !tbaa !229
  %142 = load i32, ptr %6, align 4, !tbaa !12
  call void @tq_send_finish(ptr noundef %141, i32 noundef %142)
  br label %143

143:                                              ; preds = %138, %137
  store i32 2, ptr %5, align 4
  br label %144

144:                                              ; preds = %143, %134
  call void @llvm.lifetime.end.p0(i64 8, ptr %12) #9
  br label %146

145:                                              ; preds = %89
  store i32 3, ptr %5, align 4
  br label %146

146:                                              ; preds = %145, %144
  call void @llvm.lifetime.end.p0(i64 8, ptr %8) #9
  call void @llvm.lifetime.end.p0(i64 16, ptr %7) #9
  call void @llvm.lifetime.end.p0(i64 4, ptr %6) #9
  %147 = load i32, ptr %5, align 4
  switch i32 %147, label %152 [
    i32 2, label %22
    i32 3, label %148
  ]

148:                                              ; preds = %146
  %149 = load ptr, ptr %3, align 8, !tbaa !41
  %150 = getelementptr inbounds nuw %struct.SchMux, ptr %149, i32 0, i32 6
  store i32 1, ptr %13, align 4, !tbaa !12
  %151 = load i32, ptr %13, align 4
  store atomic i32 %151, ptr %150 seq_cst, align 8
  store i32 0, ptr %2, align 4
  store i32 1, ptr %5, align 4
  br label %152

152:                                              ; preds = %148, %146, %19
  call void @llvm.lifetime.end.p0(i64 4, ptr %4) #9
  %153 = load i32, ptr %2, align 4
  ret i32 %153
}