; Function Attrs: nounwind uwtable
define internal fastcc range(i32 -2147483648, 1) i32 @mux_task_start(ptr noundef %0) unnamed_addr #0 {
  %2 = alloca ptr, align 8
  %3 = getelementptr inbounds nuw i8, ptr %0, i64 32
  %4 = tail call fastcc i32 @task_start(ptr noundef nonnull %3)
  %5 = icmp slt i32 %4, 0
  br i1 %5, label %64, label %.preheader

.preheader:                                       ; preds = %1
  %6 = getelementptr inbounds nuw i8, ptr %0, i64 16
  %7 = getelementptr inbounds nuw i8, ptr %0, i64 8
  %8 = getelementptr inbounds nuw i8, ptr %0, i64 96
  call void @llvm.lifetime.start.p0(i64 8, ptr nonnull %2) #9
  %9 = load i32, ptr %6, align 8, !tbaa !36
  %.not7378 = icmp eq i32 %9, 0
  br i1 %.not7378, label %._crit_edge.thread, label %.lr.ph

.lr.ph:                                           ; preds = %.preheader, %.lr.ph.backedge
  %indvars.iv = phi i64 [ %indvars.iv.be, %.lr.ph.backedge ], [ 0, %.preheader ]
  %.03568 = phi i32 [ %.03568.be, %.lr.ph.backedge ], [ -1, %.preheader ]
  %.sroa.09.066 = phi i64 [ %.sroa.09.066.be, %.lr.ph.backedge ], [ -9223372036854775808, %.preheader ]
  %.sroa.6.065 = phi i64 [ %.sroa.6.065.be, %.lr.ph.backedge ], [ 0, %.preheader ]
  %10 = load ptr, ptr %7, align 8, !tbaa !41
  %11 = getelementptr inbounds nuw %struct.SchMuxStream, ptr %10, i64 %indvars.iv, i32 4
  %12 = load ptr, ptr %11, align 8, !tbaa !42
  %13 = call i32 @av_fifo_peek(ptr noundef %12, ptr noundef nonnull %2, i64 noundef 1, i64 noundef 0) #9
  %14 = icmp slt i32 %13, 0
  br i1 %14, label %33, label %15

15:                                               ; preds = %.lr.ph
  %16 = load ptr, ptr %2, align 8, !tbaa !227
  %.not = icmp eq ptr %16, null
  %17 = trunc nuw i64 %indvars.iv to i32
  br i1 %.not, label %._crit_edge, label %18

18:                                               ; preds = %15
  %19 = getelementptr inbounds nuw i8, ptr %16, i64 16
  %20 = load i64, ptr %19, align 8, !tbaa !228
  %21 = icmp eq i64 %20, -9223372036854775808
  br i1 %21, label %._crit_edge, label %22

22:                                               ; preds = %18
  %23 = icmp eq i64 %.sroa.09.066, -9223372036854775808
  br i1 %23, label %29, label %24

24:                                               ; preds = %22
  %25 = getelementptr inbounds nuw i8, ptr %16, i64 96
  %26 = load i64, ptr %25, align 8
  %27 = call i32 @av_compare_ts(i64 noundef %.sroa.09.066, i64 %.sroa.6.065, i64 noundef %20, i64 %26) #9
  %28 = icmp sgt i32 %27, 0
  br i1 %28, label %._crit_edge75, label %33

._crit_edge75:                                    ; preds = %24
  %.pre = load ptr, ptr %2, align 8, !tbaa !227
  %.phi.trans.insert = getelementptr inbounds nuw i8, ptr %.pre, i64 16
  %.pre76 = load i64, ptr %.phi.trans.insert, align 8, !tbaa !228
  br label %29

29:                                               ; preds = %._crit_edge75, %22
  %30 = phi i64 [ %.pre76, %._crit_edge75 ], [ %20, %22 ]
  %31 = phi ptr [ %.pre, %._crit_edge75 ], [ %16, %22 ]
  %32 = getelementptr inbounds nuw i8, ptr %31, i64 96
  %.sroa.2.sroa.0.0.copyload = load i64, ptr %32, align 8
  br label %33

33:                                               ; preds = %.lr.ph, %29, %24
  %.sroa.6.1.ph = phi i64 [ %.sroa.6.065, %24 ], [ %.sroa.2.sroa.0.0.copyload, %29 ], [ %.sroa.6.065, %.lr.ph ]
  %.sroa.09.1.ph = phi i64 [ %.sroa.09.066, %24 ], [ %30, %29 ], [ %.sroa.09.066, %.lr.ph ]
  %.237.ph = phi i32 [ %.03568, %24 ], [ %17, %29 ], [ %.03568, %.lr.ph ]
  %indvars.iv.next = add nuw nsw i64 %indvars.iv, 1
  %34 = load i32, ptr %6, align 8, !tbaa !36
  %35 = zext i32 %34 to i64
  %36 = icmp samesign ult i64 %indvars.iv.next, %35
  br i1 %36, label %.lr.ph.backedge, label %._crit_edge

.lr.ph.backedge:                                  ; preds = %33, %61
  %indvars.iv.be = phi i64 [ %indvars.iv.next, %33 ], [ 0, %61 ]
  %.03568.be = phi i32 [ %.237.ph, %33 ], [ -1, %61 ]
  %.sroa.09.066.be = phi i64 [ %.sroa.09.1.ph, %33 ], [ -9223372036854775808, %61 ]
  %.sroa.6.065.be = phi i64 [ %.sroa.6.1.ph, %33 ], [ 0, %61 ]
  br label %.lr.ph, !llvm.loop !229

._crit_edge:                                      ; preds = %33, %15, %18
  %.136 = phi i32 [ %.237.ph, %33 ], [ %17, %15 ], [ %17, %18 ]
  %37 = icmp sgt i32 %.136, -1
  br i1 %37, label %38, label %._crit_edge.thread

38:                                               ; preds = %._crit_edge
  %39 = load ptr, ptr %7, align 8, !tbaa !41
  %40 = zext nneg i32 %.136 to i64
  %41 = getelementptr inbounds nuw %struct.SchMuxStream, ptr %39, i64 %40
  %42 = getelementptr inbounds nuw i8, ptr %41, i64 40
  %43 = load ptr, ptr %42, align 8, !tbaa !42
  %44 = call i32 @av_fifo_read(ptr noundef %43, ptr noundef nonnull %2, i64 noundef 1) #9
  %45 = icmp sgt i32 %44, -1
  br i1 %45, label %47, label %46

46:                                               ; preds = %38
  call void (ptr, i32, ptr, ...) @av_log(ptr noundef null, i32 noundef 0, ptr noundef nonnull @.str, ptr noundef nonnull @.str.46, ptr noundef nonnull @.str.2, i32 noundef 1135) #9
  call void @abort() #10
  unreachable

47:                                               ; preds = %38
  %48 = load ptr, ptr %2, align 8, !tbaa !227
  %.not45 = icmp eq ptr %48, null
  br i1 %.not45, label %59, label %49

49:                                               ; preds = %47
  %50 = getelementptr inbounds nuw i8, ptr %41, i64 72
  %51 = load i32, ptr %50, align 8, !tbaa !230
  %.not46 = icmp eq i32 %51, 0
  br i1 %.not46, label %52, label %.thread57

.thread57:                                        ; preds = %49
  call void @av_packet_free(ptr noundef nonnull %2) #9
  br label %61

52:                                               ; preds = %49
  %53 = load ptr, ptr %8, align 8, !tbaa !210
  %54 = call i32 @tq_send(ptr noundef %53, i32 noundef %.136, ptr noundef nonnull %48) #9
  call void @av_packet_free(ptr noundef nonnull %2) #9
  %55 = icmp eq i32 %54, -541478725
  br i1 %55, label %56, label %57

56:                                               ; preds = %52
  store i32 1, ptr %50, align 8, !tbaa !230
  br label %61

57:                                               ; preds = %52
  %58 = icmp slt i32 %54, 0
  br i1 %58, label %.thread59, label %61

.thread59:                                        ; preds = %57
  call void @llvm.lifetime.end.p0(i64 8, ptr nonnull %2) #9
  br label %64

59:                                               ; preds = %47
  %60 = load ptr, ptr %8, align 8, !tbaa !210
  call void @tq_send_finish(ptr noundef %60, i32 noundef %.136) #9
  br label %61

61:                                               ; preds = %59, %57, %56, %.thread57
  call void @llvm.lifetime.end.p0(i64 8, ptr nonnull %2) #9
  call void @llvm.lifetime.start.p0(i64 8, ptr nonnull %2) #9
  %62 = load i32, ptr %6, align 8, !tbaa !36
  %.not73 = icmp eq i32 %62, 0
  br i1 %.not73, label %._crit_edge.thread, label %.lr.ph.backedge

._crit_edge.thread:                               ; preds = %._crit_edge, %61, %.preheader
  call void @llvm.lifetime.end.p0(i64 8, ptr nonnull %2) #9
  %63 = getelementptr inbounds nuw i8, ptr %0, i64 88
  store atomic i32 1, ptr %63 seq_cst, align 8
  br label %64

64:                                               ; preds = %.thread59, %1, %._crit_edge.thread
  %.0 = phi i32 [ 0, %._crit_edge.thread ], [ %4, %1 ], [ %54, %.thread59 ]
  ret i32 %.0
}